; Function Attrs: nounwind uwtable
define ptr @l_Lean_Lsp_instForInModuleRefsProdRefIdentRefInfo___rarg___lambda__1(ptr noundef %0, ptr noundef %1) #1 {
  %3 = getelementptr inbounds nuw i8, ptr %1, i64 8
  %4 = load ptr, ptr %3, align 8, !tbaa !4
  %5 = ptrtoint ptr %4 to i64
  %6 = and i64 %5, 1
  %.not = icmp eq i64 %6, 0
  br i1 %.not, label %7, label %lean_inc.exit15

7:                                                ; preds = %2
  %.val.i = load i32, ptr %4, align 4, !tbaa !8
  %8 = icmp sgt i32 %.val.i, 0
  br i1 %8, label %9, label %11, !prof !11

9:                                                ; preds = %7
  %10 = add nuw i32 %.val.i, 1
  store i32 %10, ptr %4, align 4, !tbaa !8
  br label %lean_inc.exit15

11:                                               ; preds = %7
  %.not.i20 = icmp eq i32 %.val.i, 0
  br i1 %.not.i20, label %lean_inc.exit15, label %12

12:                                               ; preds = %11
  tail call void @lean_inc_ref_cold(ptr noundef nonnull %4) #8
  br label %lean_inc.exit15

lean_inc.exit15:                                  ; preds = %12, %11, %9, %2
  %13 = ptrtoint ptr %1 to i64
  %14 = and i64 %13, 1
  %.not27 = icmp eq i64 %14, 0
  br i1 %.not27, label %15, label %lean_dec.exit13

15:                                               ; preds = %lean_inc.exit15
  %16 = load i32, ptr %1, align 4, !tbaa !8
  %17 = icmp sgt i32 %16, 1
  br i1 %17, label %18, label %20, !prof !11

18:                                               ; preds = %15
  %19 = add nsw i32 %16, -1
  store i32 %19, ptr %1, align 4, !tbaa !8
  br label %lean_dec.exit13

20:                                               ; preds = %15
  %.not.i = icmp eq i32 %16, 0
  br i1 %.not.i, label %lean_dec.exit13, label %21

21:                                               ; preds = %20
  tail call void @lean_dec_ref_cold(ptr noundef nonnull %1) #8
  br label %lean_dec.exit13

lean_dec.exit13:                                  ; preds = %21, %20, %18, %lean_inc.exit15
  %22 = getelementptr inbounds nuw i8, ptr %0, i64 8
  %23 = load ptr, ptr %22, align 8, !tbaa !4
  %24 = ptrtoint ptr %23 to i64
  %25 = and i64 %24, 1
  %.not28 = icmp eq i64 %25, 0
  br i1 %.not28, label %26, label %lean_inc.exit14

26:                                               ; preds = %lean_dec.exit13
  %.val.i21 = load i32, ptr %23, align 4, !tbaa !8
  %27 = icmp sgt i32 %.val.i21, 0
  br i1 %27, label %28, label %30, !prof !11

28:                                               ; preds = %26
  %29 = add nuw i32 %.val.i21, 1
  store i32 %29, ptr %23, align 4, !tbaa !8
  br label %lean_inc.exit14

30:                                               ; preds = %26
  %.not.i22 = icmp eq i32 %.val.i21, 0
  br i1 %.not.i22, label %lean_inc.exit14, label %31

31:                                               ; preds = %30
  tail call void @lean_inc_ref_cold(ptr noundef nonnull %23) #8
  br label %lean_inc.exit14

lean_inc.exit14:                                  ; preds = %31, %30, %28, %lean_dec.exit13
  %32 = ptrtoint ptr %0 to i64
  %33 = and i64 %32, 1
  %.not29 = icmp eq i64 %33, 0
  br i1 %.not29, label %34, label %lean_dec.exit12

34:                                               ; preds = %lean_inc.exit14
  %35 = load i32, ptr %0, align 4, !tbaa !8
  %36 = icmp sgt i32 %35, 1
  br i1 %36, label %37, label %39, !prof !11

37:                                               ; preds = %34
  %38 = add nsw i32 %35, -1
  store i32 %38, ptr %0, align 4, !tbaa !8
  br label %lean_dec.exit12

39:                                               ; preds = %34
  %.not.i16 = icmp eq i32 %35, 0
  br i1 %.not.i16, label %lean_dec.exit12, label %40

40:                                               ; preds = %39
  tail call void @lean_dec_ref_cold(ptr noundef nonnull %0) #8
  br label %lean_dec.exit12

lean_dec.exit12:                                  ; preds = %40, %39, %37, %lean_inc.exit14
  %41 = getelementptr inbounds nuw i8, ptr %23, i64 16
  %42 = load ptr, ptr %41, align 8, !tbaa !4
  %43 = ptrtoint ptr %42 to i64
  %44 = and i64 %43, 1
  %.not30 = icmp eq i64 %44, 0
  br i1 %.not30, label %45, label %lean_inc.exit

45:                                               ; preds = %lean_dec.exit12
  %.val.i24 = load i32, ptr %42, align 4, !tbaa !8
  %46 = icmp sgt i32 %.val.i24, 0
  br i1 %46, label %47, label %49, !prof !11

47:                                               ; preds = %45
  %48 = add nuw i32 %.val.i24, 1
  store i32 %48, ptr %42, align 4, !tbaa !8
  br label %lean_inc.exit

49:                                               ; preds = %45
  %.not.i25 = icmp eq i32 %.val.i24, 0
  br i1 %.not.i25, label %lean_inc.exit, label %50

50:                                               ; preds = %49
  tail call void @lean_inc_ref_cold(ptr noundef nonnull %42) #8
  br label %lean_inc.exit

lean_inc.exit:                                    ; preds = %50, %49, %47, %lean_dec.exit12
  br i1 %.not28, label %51, label %lean_dec.exit

51:                                               ; preds = %lean_inc.exit
  %52 = load i32, ptr %23, align 4, !tbaa !8
  %53 = icmp sgt i32 %52, 1
  br i1 %53, label %54, label %56, !prof !11

54:                                               ; preds = %51
  %55 = add nsw i32 %52, -1
  store i32 %55, ptr %23, align 4, !tbaa !8
  br label %lean_dec.exit

56:                                               ; preds = %51
  %.not.i18 = icmp eq i32 %52, 0
  br i1 %.not.i18, label %lean_dec.exit, label %57

57:                                               ; preds = %56
  tail call void @lean_dec_ref_cold(ptr noundef nonnull %23) #8
  br label %lean_dec.exit

lean_dec.exit:                                    ; preds = %57, %56, %54, %lean_inc.exit
  %58 = tail call ptr @lean_apply_2(ptr noundef %42, ptr noundef nonnull inttoptr (i64 1 to ptr), ptr noundef %4) #8
  ret ptr %58
}